; Function Attrs: nounwind uwtable
define dso_local noundef i64 @pg_stat_reset_backend_stats(ptr noundef readonly captures(none) %0) local_unnamed_addr #0 {
  %2 = getelementptr inbounds nuw i8, ptr %0, i64 32
  %3 = load i64, ptr %2, align 8
  %4 = trunc i64 %3 to i32
  %5 = tail call ptr @BackendPidGetProc(i32 noundef %4) #9
  %.not = icmp eq ptr %5, null
  br i1 %.not, label %13, label %6

6:                                                ; preds = %1
  %7 = load ptr, ptr @ProcGlobal, align 8
  %8 = load ptr, ptr %7, align 8
  %9 = ptrtoint ptr %5 to i64
  %10 = ptrtoint ptr %8 to i64
  %11 = sub i64 %9, %10
  %12 = sdiv exact i64 %11, 832
  tail call void @pgstat_reset(i32 noundef 6, i32 noundef 0, i64 noundef %12) #9
  br label %13

13:                                               ; preds = %1, %6
  ret i64 0
}